; Function Attrs: mustprogress uwtable
define hidden void @_ZN4cvc58internal13FloatingPoint13makeMinNormalERKNS0_17FloatingPointSizeEb(ptr dead_on_unwind noalias writable writeonly sret(%"class.cvc5::internal::FloatingPoint") align 8 captures(none) %0, ptr noundef nonnull align 4 dereferenceable(8) %1, i1 noundef zeroext %2) local_unnamed_addr #3 align 2 personality ptr @__gxx_personality_v0 {
  %4 = alloca %"class.cvc5::internal::BitVector", align 8
  %5 = alloca %"class.cvc5::internal::BitVector", align 8
  %6 = alloca %"class.cvc5::internal::BitVector", align 8
  %7 = alloca %"class.cvc5::internal::BitVector", align 8
  %8 = alloca %"class.cvc5::internal::BitVector", align 8
  call void @llvm.lifetime.start.p0(i64 24, ptr nonnull %4) #20
  br i1 %2, label %9, label %10

9:                                                ; preds = %3
  call void @_ZN4cvc58internal9BitVector5mkOneEj(ptr dead_on_unwind nonnull writable sret(%"class.cvc5::internal::BitVector") align 8 %4, i32 noundef 1)
  br label %11

10:                                               ; preds = %3
  call void @_ZN4cvc58internal9BitVector6mkZeroEj(ptr dead_on_unwind nonnull writable sret(%"class.cvc5::internal::BitVector") align 8 %4, i32 noundef 1)
  br label %11

11:                                               ; preds = %9, %10
  call void @llvm.lifetime.start.p0(i64 24, ptr nonnull %5) #20
  %12 = load i32, ptr %1, align 4, !tbaa !36
  invoke void @_ZN4cvc58internal9BitVector5mkOneEj(ptr dead_on_unwind nonnull writable sret(%"class.cvc5::internal::BitVector") align 8 %5, i32 noundef %12)
          to label %13 unwind label %44

13:                                               ; preds = %11
  call void @llvm.lifetime.start.p0(i64 24, ptr nonnull %6) #20
  %14 = getelementptr inbounds nuw i8, ptr %1, i64 4
  %15 = load i32, ptr %14, align 4, !tbaa !33
  %16 = add i32 %15, -1
  invoke void @_ZN4cvc58internal9BitVector6mkZeroEj(ptr dead_on_unwind nonnull writable sret(%"class.cvc5::internal::BitVector") align 8 %6, i32 noundef %16)
          to label %17 unwind label %46

17:                                               ; preds = %13
  call void @llvm.lifetime.start.p0(i64 24, ptr nonnull %7) #20
  call void @llvm.lifetime.start.p0(i64 24, ptr nonnull %8) #20
  invoke void @_ZNK4cvc58internal9BitVector6concatERKS1_(ptr dead_on_unwind nonnull writable sret(%"class.cvc5::internal::BitVector") align 8 %8, ptr noundef nonnull align 8 dereferenceable(24) %4, ptr noundef nonnull align 8 dereferenceable(24) %5)
          to label %18 unwind label %48

18:                                               ; preds = %17
  invoke void @_ZNK4cvc58internal9BitVector6concatERKS1_(ptr dead_on_unwind nonnull writable sret(%"class.cvc5::internal::BitVector") align 8 %7, ptr noundef nonnull align 8 dereferenceable(24) %8, ptr noundef nonnull align 8 dereferenceable(24) %6)
          to label %19 unwind label %50

19:                                               ; preds = %18
  %20 = invoke noalias noundef nonnull dereferenceable(64) ptr @_Znwm(i64 noundef 64) #17
          to label %.noexc unwind label %52

.noexc:                                           ; preds = %19
  invoke void @_ZN4cvc58internal20FloatingPointLiteralC1ERKNS0_17FloatingPointSizeERKNS0_9BitVectorE(ptr noundef nonnull align 8 dereferenceable(64) %20, ptr noundef nonnull align 4 dereferenceable(8) %1, ptr noundef nonnull align 8 dereferenceable(24) %7)
          to label %23 unwind label %21

21:                                               ; preds = %.noexc
  %22 = landingpad { ptr, i32 }
          cleanup
  call void @_ZdlPvm(ptr noundef nonnull %20, i64 noundef 64) #18
  br label %.body

23:                                               ; preds = %.noexc
  store ptr %20, ptr %0, align 8, !tbaa !3
  %24 = getelementptr inbounds nuw i8, ptr %7, i64 8
  invoke void @__gmpz_clear(ptr noundef nonnull align 8 dereferenceable(16) %24)
          to label %_ZN4cvc58internal9BitVectorD2Ev.exit unwind label %25

25:                                               ; preds = %23
  %26 = landingpad { ptr, i32 }
          catch ptr null
  %27 = extractvalue { ptr, i32 } %26, 0
  call void @__clang_call_terminate(ptr %27) #19
  unreachable

_ZN4cvc58internal9BitVectorD2Ev.exit:             ; preds = %23
  %28 = getelementptr inbounds nuw i8, ptr %8, i64 8
  invoke void @__gmpz_clear(ptr noundef nonnull align 8 dereferenceable(16) %28)
          to label %_ZN4cvc58internal9BitVectorD2Ev.exit13 unwind label %29

29:                                               ; preds = %_ZN4cvc58internal9BitVectorD2Ev.exit
  %30 = landingpad { ptr, i32 }
          catch ptr null
  %31 = extractvalue { ptr, i32 } %30, 0
  call void @__clang_call_terminate(ptr %31) #19
  unreachable

_ZN4cvc58internal9BitVectorD2Ev.exit13:           ; preds = %_ZN4cvc58internal9BitVectorD2Ev.exit
  call void @llvm.lifetime.end.p0(i64 24, ptr nonnull %8) #20
  call void @llvm.lifetime.end.p0(i64 24, ptr nonnull %7) #20
  %32 = getelementptr inbounds nuw i8, ptr %6, i64 8
  invoke void @__gmpz_clear(ptr noundef nonnull align 8 dereferenceable(16) %32)
          to label %_ZN4cvc58internal9BitVectorD2Ev.exit14 unwind label %33

33:                                               ; preds = %_ZN4cvc58internal9BitVectorD2Ev.exit13
  %34 = landingpad { ptr, i32 }
          catch ptr null
  %35 = extractvalue { ptr, i32 } %34, 0
  call void @__clang_call_terminate(ptr %35) #19
  unreachable

_ZN4cvc58internal9BitVectorD2Ev.exit14:           ; preds = %_ZN4cvc58internal9BitVectorD2Ev.exit13
  call void @llvm.lifetime.end.p0(i64 24, ptr nonnull %6) #20
  %36 = getelementptr inbounds nuw i8, ptr %5, i64 8
  invoke void @__gmpz_clear(ptr noundef nonnull align 8 dereferenceable(16) %36)
          to label %_ZN4cvc58internal9BitVectorD2Ev.exit15 unwind label %37

37:                                               ; preds = %_ZN4cvc58internal9BitVectorD2Ev.exit14
  %38 = landingpad { ptr, i32 }
          catch ptr null
  %39 = extractvalue { ptr, i32 } %38, 0
  call void @__clang_call_terminate(ptr %39) #19
  unreachable

_ZN4cvc58internal9BitVectorD2Ev.exit15:           ; preds = %_ZN4cvc58internal9BitVectorD2Ev.exit14
  call void @llvm.lifetime.end.p0(i64 24, ptr nonnull %5) #20
  %40 = getelementptr inbounds nuw i8, ptr %4, i64 8
  invoke void @__gmpz_clear(ptr noundef nonnull align 8 dereferenceable(16) %40)
          to label %_ZN4cvc58internal9BitVectorD2Ev.exit16 unwind label %41

41:                                               ; preds = %_ZN4cvc58internal9BitVectorD2Ev.exit15
  %42 = landingpad { ptr, i32 }
          catch ptr null
  %43 = extractvalue { ptr, i32 } %42, 0
  call void @__clang_call_terminate(ptr %43) #19
  unreachable

_ZN4cvc58internal9BitVectorD2Ev.exit16:           ; preds = %_ZN4cvc58internal9BitVectorD2Ev.exit15
  call void @llvm.lifetime.end.p0(i64 24, ptr nonnull %4) #20
  ret void

44:                                               ; preds = %11
  %45 = landingpad { ptr, i32 }
          cleanup
  br label %_ZN4cvc58internal9BitVectorD2Ev.exit20

46:                                               ; preds = %13
  %47 = landingpad { ptr, i32 }
          cleanup
  br label %_ZN4cvc58internal9BitVectorD2Ev.exit19

48:                                               ; preds = %17
  %49 = landingpad { ptr, i32 }
          cleanup
  br label %_ZN4cvc58internal9BitVectorD2Ev.exit18

50:                                               ; preds = %18
  %51 = landingpad { ptr, i32 }
          cleanup
  br label %_ZN4cvc58internal9BitVectorD2Ev.exit17

52:                                               ; preds = %19
  %53 = landingpad { ptr, i32 }
          cleanup
  br label %.body

.body:                                            ; preds = %21, %52
  %eh.lpad-body = phi { ptr, i32 } [ %53, %52 ], [ %22, %21 ]
  %54 = getelementptr inbounds nuw i8, ptr %7, i64 8
  invoke void @__gmpz_clear(ptr noundef nonnull align 8 dereferenceable(16) %54)
          to label %_ZN4cvc58internal9BitVectorD2Ev.exit17 unwind label %55

55:                                               ; preds = %.body
  %56 = landingpad { ptr, i32 }
          catch ptr null
  %57 = extractvalue { ptr, i32 } %56, 0
  call void @__clang_call_terminate(ptr %57) #19
  unreachable

_ZN4cvc58internal9BitVectorD2Ev.exit17:           ; preds = %.body, %50
  %.pn = phi { ptr, i32 } [ %51, %50 ], [ %eh.lpad-body, %.body ]
  %58 = getelementptr inbounds nuw i8, ptr %8, i64 8
  invoke void @__gmpz_clear(ptr noundef nonnull align 8 dereferenceable(16) %58)
          to label %_ZN4cvc58internal9BitVectorD2Ev.exit18 unwind label %59

59:                                               ; preds = %_ZN4cvc58internal9BitVectorD2Ev.exit17
  %60 = landingpad { ptr, i32 }
          catch ptr null
  %61 = extractvalue { ptr, i32 } %60, 0
  call void @__clang_call_terminate(ptr %61) #19
  unreachable

_ZN4cvc58internal9BitVectorD2Ev.exit18:           ; preds = %_ZN4cvc58internal9BitVectorD2Ev.exit17, %48
  %.pn.pn = phi { ptr, i32 } [ %49, %48 ], [ %.pn, %_ZN4cvc58internal9BitVectorD2Ev.exit17 ]
  call void @llvm.lifetime.end.p0(i64 24, ptr nonnull %8) #20
  call void @llvm.lifetime.end.p0(i64 24, ptr nonnull %7) #20
  %62 = getelementptr inbounds nuw i8, ptr %6, i64 8
  invoke void @__gmpz_clear(ptr noundef nonnull align 8 dereferenceable(16) %62)
          to label %_ZN4cvc58internal9BitVectorD2Ev.exit19 unwind label %63

63:                                               ; preds = %_ZN4cvc58internal9BitVectorD2Ev.exit18
  %64 = landingpad { ptr, i32 }
          catch ptr null
  %65 = extractvalue { ptr, i32 } %64, 0
  call void @__clang_call_terminate(ptr %65) #19
  unreachable

_ZN4cvc58internal9BitVectorD2Ev.exit19:           ; preds = %_ZN4cvc58internal9BitVectorD2Ev.exit18, %46
  %.pn.pn.pn = phi { ptr, i32 } [ %47, %46 ], [ %.pn.pn, %_ZN4cvc58internal9BitVectorD2Ev.exit18 ]
  call void @llvm.lifetime.end.p0(i64 24, ptr nonnull %6) #20
  %66 = getelementptr inbounds nuw i8, ptr %5, i64 8
  invoke void @__gmpz_clear(ptr noundef nonnull align 8 dereferenceable(16) %66)
          to label %_ZN4cvc58internal9BitVectorD2Ev.exit20 unwind label %67

67:                                               ; preds = %_ZN4cvc58internal9BitVectorD2Ev.exit19
  %68 = landingpad { ptr, i32 }
          catch ptr null
  %69 = extractvalue { ptr, i32 } %68, 0
  call void @__clang_call_terminate(ptr %69) #19
  unreachable

_ZN4cvc58internal9BitVectorD2Ev.exit20:           ; preds = %_ZN4cvc58internal9BitVectorD2Ev.exit19, %44
  %.pn.pn.pn.pn = phi { ptr, i32 } [ %45, %44 ], [ %.pn.pn.pn, %_ZN4cvc58internal9BitVectorD2Ev.exit19 ]
  call void @llvm.lifetime.end.p0(i64 24, ptr nonnull %5) #20
  %70 = getelementptr inbounds nuw i8, ptr %4, i64 8
  invoke void @__gmpz_clear(ptr noundef nonnull align 8 dereferenceable(16) %70)
          to label %_ZN4cvc58internal9BitVectorD2Ev.exit21 unwind label %71

71:                                               ; preds = %_ZN4cvc58internal9BitVectorD2Ev.exit20
  %72 = landingpad { ptr, i32 }
          catch ptr null
  %73 = extractvalue { ptr, i32 } %72, 0
  call void @__clang_call_terminate(ptr %73) #19
  unreachable

_ZN4cvc58internal9BitVectorD2Ev.exit21:           ; preds = %_ZN4cvc58internal9BitVectorD2Ev.exit20
  call void @llvm.lifetime.end.p0(i64 24, ptr nonnull %4) #20
  resume { ptr, i32 } %.pn.pn.pn.pn
}